target datalayout = "e-m:e-p270:32:32-p271:32:32-p272:64:64-i64:64-i128:128-f80:128-n8:16:32:64-S128"
target triple = "x86_64-pc-linux-gnu"

%struct.marshal_compat_t = type { i64, i64, ptr, ptr }

@rb_eTypeError = external global i64, align 8
@.str = private unnamed_addr constant [13 x i8] c"no allocator\00", align 1
@compat_allocator_tbl_wrapper = internal global i64 0, align 8
@.str.1 = private unnamed_addr constant [13 x i8] c"../marshal.c\00", align 1
@compat_allocator_tbl = internal global ptr null, align 8

; Function Attrs: inlinehint nounwind sspstrong willreturn memory(none) uwtable
define internal zeroext i1 @RB_IMMEDIATE_P(i64 noundef %0) #8 {
  %2 = alloca i64, align 8
  store i64 %0, ptr %2, align 8, !tbaa !7
  %3 = load i64, ptr %2, align 8, !tbaa !7
  %4 = and i64 %3, 7
  %5 = icmp ne i64 %4, 0
  ret i1 %5
}

; Function Attrs: inlinehint nounwind sspstrong willreturn memory(none) uwtable
define internal zeroext i1 @RB_SPECIAL_CONST_P(i64 noundef %0) #8 {
  %2 = alloca i64, align 8
  store i64 %0, ptr %2, align 8, !tbaa !7
  %3 = load i64, ptr %2, align 8, !tbaa !7
  %4 = icmp eq i64 %3, 0
  br i1 %4, label %8, label %5

5:                                                ; preds = %1
  %6 = load i64, ptr %2, align 8, !tbaa !7
  %7 = call zeroext i1 @RB_IMMEDIATE_P(i64 noundef %6) #26
  br label %8

8:                                                ; preds = %5, %1
  %9 = phi i1 [ true, %1 ], [ %7, %5 ]
  ret i1 %9
}

; Function Attrs: inlinehint nounwind sspstrong uwtable
define internal i64 @rb_obj_written(i64 noundef %0, i64 noundef %1, i64 noundef %2, ptr noundef %3, i32 noundef %4) #5 {
  %6 = alloca i64, align 8
  %7 = alloca i64, align 8
  %8 = alloca i64, align 8
  %9 = alloca ptr, align 8
  %10 = alloca i32, align 4
  store i64 %0, ptr %6, align 8, !tbaa !7
  store i64 %1, ptr %7, align 8, !tbaa !7
  store i64 %2, ptr %8, align 8, !tbaa !7
  store ptr %3, ptr %9, align 8, !tbaa !20
  store i32 %4, ptr %10, align 4, !tbaa !22
  %11 = load i64, ptr %8, align 8, !tbaa !7
  %12 = call zeroext i1 @RB_SPECIAL_CONST_P(i64 noundef %11) #26
  br i1 %12, label %16, label %13

13:                                               ; preds = %5
  %14 = load i64, ptr %6, align 8, !tbaa !7
  %15 = load i64, ptr %8, align 8, !tbaa !7
  call void @rb_gc_writebarrier(i64 noundef %14, i64 noundef %15)
  br label %16

16:                                               ; preds = %13, %5
  %17 = load i64, ptr %6, align 8, !tbaa !7
  ret i64 %17
}

; Function Attrs: inlinehint nounwind sspstrong uwtable
define internal i64 @rb_obj_write(i64 noundef %0, ptr noundef %1, i64 noundef %2, ptr noundef %3, i32 noundef %4) #5 {
  %6 = alloca i64, align 8
  %7 = alloca ptr, align 8
  %8 = alloca i64, align 8
  %9 = alloca ptr, align 8
  %10 = alloca i32, align 4
  store i64 %0, ptr %6, align 8, !tbaa !7
  store ptr %1, ptr %7, align 8, !tbaa !18
  store i64 %2, ptr %8, align 8, !tbaa !7
  store ptr %3, ptr %9, align 8, !tbaa !20
  store i32 %4, ptr %10, align 4, !tbaa !22
  %11 = load i64, ptr %8, align 8, !tbaa !7
  %12 = load ptr, ptr %7, align 8, !tbaa !18
  store i64 %11, ptr %12, align 8, !tbaa !7
  %13 = load i64, ptr %6, align 8, !tbaa !7
  %14 = load i64, ptr %8, align 8, !tbaa !7
  %15 = load ptr, ptr %9, align 8, !tbaa !20
  %16 = load i32, ptr %10, align 4, !tbaa !22
  %17 = call i64 @rb_obj_written(i64 noundef %13, i64 noundef 36, i64 noundef %14, ptr noundef %15, i32 noundef %16)
  %18 = load i64, ptr %6, align 8, !tbaa !7
  ret i64 %18
}

; Function Attrs: nounwind sspstrong uwtable
define internal ptr @compat_allocator_table() #0 {
  %1 = alloca ptr, align 8
  %2 = load ptr, ptr @compat_allocator_tbl, align 8, !tbaa !16
  %3 = icmp ne ptr %2, null
  br i1 %3, label %4, label %6

4:                                                ; preds = %0
  %5 = load ptr, ptr @compat_allocator_tbl, align 8, !tbaa !16
  store ptr %5, ptr %1, align 8
  br label %12

6:                                                ; preds = %0
  %7 = call ptr @rb_st_init_numtable()
  store ptr %7, ptr @compat_allocator_tbl, align 8, !tbaa !16
  %8 = load ptr, ptr @compat_allocator_tbl, align 8, !tbaa !16
  %9 = call i64 @rb_data_typed_object_wrap(i64 noundef 0, ptr noundef %8, ptr noundef @marshal_compat_type)
  store i64 %9, ptr @compat_allocator_tbl_wrapper, align 8, !tbaa !7
  %10 = load i64, ptr @compat_allocator_tbl_wrapper, align 8, !tbaa !7
  call void @rb_vm_register_global_object(i64 noundef %10)
  %11 = load ptr, ptr @compat_allocator_tbl, align 8, !tbaa !16
  store ptr %11, ptr %1, align 8
  br label %12

12:                                               ; preds = %6, %4
  %13 = load ptr, ptr %1, align 8
  ret ptr %13
}

; Function Attrs: nounwind sspstrong uwtable
define dso_local void @rb_marshal_define_compat(i64 noundef %0, i64 noundef %1, ptr noundef %2, ptr noundef %3) #0 {
  %5 = alloca i64, align 8
  %6 = alloca i64, align 8
  %7 = alloca ptr, align 8
  %8 = alloca ptr, align 8
  %9 = alloca ptr, align 8
  %10 = alloca ptr, align 8
  store i64 %0, ptr %5, align 8, !tbaa !7
  store i64 %1, ptr %6, align 8, !tbaa !7
  store ptr %2, ptr %7, align 8, !tbaa !11
  store ptr %3, ptr %8, align 8, !tbaa !11
  call void @llvm.lifetime.start.p0(i64 8, ptr %9) #23
  call void @llvm.lifetime.start.p0(i64 8, ptr %10) #23
  %11 = load i64, ptr %5, align 8, !tbaa !7
  %12 = call ptr @rb_get_alloc_func(i64 noundef %11)
  store ptr %12, ptr %10, align 8, !tbaa !11
  %13 = load ptr, ptr %10, align 8, !tbaa !11
  %14 = icmp ne ptr %13, null
  br i1 %14, label %17, label %15

15:                                               ; preds = %4
  %16 = load i64, ptr @rb_eTypeError, align 8, !tbaa !7
  call void (i64, ptr, ...) @rb_raise(i64 noundef %16, ptr noundef @.str) #24
  unreachable

17:                                               ; preds = %4
  %18 = call ptr @compat_allocator_table()
  %19 = call noalias nonnull ptr @ruby_xmalloc(i64 noundef 32) #25
  store ptr %19, ptr %9, align 8, !tbaa !11
  %20 = load i64, ptr @compat_allocator_tbl_wrapper, align 8, !tbaa !7
  %21 = load ptr, ptr %9, align 8, !tbaa !11
  %22 = getelementptr inbounds nuw %struct.marshal_compat_t, ptr %21, i32 0, i32 0
  %23 = load i64, ptr %5, align 8, !tbaa !7
  %24 = call i64 @rb_obj_write(i64 noundef %20, ptr noundef %22, i64 noundef %23, ptr noundef @.str.1, i32 noundef 145)
  %25 = load i64, ptr @compat_allocator_tbl_wrapper, align 8, !tbaa !7
  %26 = load ptr, ptr %9, align 8, !tbaa !11
  %27 = getelementptr inbounds nuw %struct.marshal_compat_t, ptr %26, i32 0, i32 1
  %28 = load i64, ptr %6, align 8, !tbaa !7
  %29 = call i64 @rb_obj_write(i64 noundef %25, ptr noundef %27, i64 noundef %28, ptr noundef @.str.1, i32 noundef 146)
  %30 = load ptr, ptr %7, align 8, !tbaa !11
  %31 = load ptr, ptr %9, align 8, !tbaa !11
  %32 = getelementptr inbounds nuw %struct.marshal_compat_t, ptr %31, i32 0, i32 2
  store ptr %30, ptr %32, align 8, !tbaa !13
  %33 = load ptr, ptr %8, align 8, !tbaa !11
  %34 = load ptr, ptr %9, align 8, !tbaa !11
  %35 = getelementptr inbounds nuw %struct.marshal_compat_t, ptr %34, i32 0, i32 3
  store ptr %33, ptr %35, align 8, !tbaa !15
  %36 = call ptr @compat_allocator_table()
  %37 = load ptr, ptr %10, align 8, !tbaa !11
  %38 = ptrtoint ptr %37 to i64
  %39 = load ptr, ptr %9, align 8, !tbaa !11
  %40 = ptrtoint ptr %39 to i64
  %41 = call i32 @rb_st_insert(ptr noundef %36, i64 noundef %38, i64 noundef %40)
  call void @llvm.lifetime.end.p0(i64 8, ptr %10) #23
  call void @llvm.lifetime.end.p0(i64 8, ptr %9) #23
  ret void
}