; Function Attrs: nounwind sspstrong uwtable
define dso_local void @rb_marshal_define_compat(i64 noundef %0, i64 noundef %1, ptr noundef %2, ptr noundef %3) local_unnamed_addr #0 {
  %5 = tail call ptr @rb_get_alloc_func(i64 noundef %0) #22
  %.not = icmp eq ptr %5, null
  br i1 %.not, label %6, label %8

6:                                                ; preds = %4
  %7 = load i64, ptr @rb_eTypeError, align 8, !tbaa !7
  tail call void (i64, ptr, ...) @rb_raise(i64 noundef %7, ptr noundef nonnull @.str) #23
  unreachable

8:                                                ; preds = %4
  %9 = load ptr, ptr @compat_allocator_tbl, align 8, !tbaa !11
  %.not.i = icmp eq ptr %9, null
  br i1 %.not.i, label %10, label %compat_allocator_table.exit

10:                                               ; preds = %8
  %11 = tail call ptr @rb_st_init_numtable() #22
  store ptr %11, ptr @compat_allocator_tbl, align 8, !tbaa !11
  %12 = tail call i64 @rb_data_typed_object_wrap(i64 noundef 0, ptr noundef %11, ptr noundef nonnull @marshal_compat_type) #22
  store i64 %12, ptr @compat_allocator_tbl_wrapper, align 8, !tbaa !7
  tail call void @rb_vm_register_global_object(i64 noundef %12) #22
  br label %compat_allocator_table.exit

compat_allocator_table.exit:                      ; preds = %8, %10
  %13 = tail call noalias nonnull dereferenceable(32) ptr @ruby_xmalloc(i64 noundef 32) #24
  %14 = load i64, ptr @compat_allocator_tbl_wrapper, align 8, !tbaa !7
  store i64 %0, ptr %13, align 8, !tbaa !7
  %15 = icmp eq i64 %0, 0
  %16 = and i64 %0, 7
  %17 = icmp ne i64 %16, 0
  %18 = or i1 %15, %17
  br i1 %18, label %rb_obj_write.exit, label %19

19:                                               ; preds = %compat_allocator_table.exit
  tail call void @rb_gc_writebarrier(i64 noundef %14, i64 noundef %0) #22
  %.pre = load i64, ptr @compat_allocator_tbl_wrapper, align 8, !tbaa !7
  br label %rb_obj_write.exit

rb_obj_write.exit:                                ; preds = %compat_allocator_table.exit, %19
  %20 = phi i64 [ %14, %compat_allocator_table.exit ], [ %.pre, %19 ]
  %21 = getelementptr inbounds nuw i8, ptr %13, i64 8
  store i64 %1, ptr %21, align 8, !tbaa !7
  %22 = icmp eq i64 %1, 0
  %23 = and i64 %1, 7
  %24 = icmp ne i64 %23, 0
  %25 = or i1 %22, %24
  br i1 %25, label %rb_obj_write.exit11, label %26

26:                                               ; preds = %rb_obj_write.exit
  tail call void @rb_gc_writebarrier(i64 noundef %20, i64 noundef %1) #22
  br label %rb_obj_write.exit11

rb_obj_write.exit11:                              ; preds = %rb_obj_write.exit, %26
  %27 = getelementptr inbounds nuw i8, ptr %13, i64 16
  store ptr %2, ptr %27, align 8, !tbaa !14
  %28 = getelementptr inbounds nuw i8, ptr %13, i64 24
  store ptr %3, ptr %28, align 8, !tbaa !16
  %29 = load ptr, ptr @compat_allocator_tbl, align 8, !tbaa !11
  %.not.i12 = icmp eq ptr %29, null
  br i1 %.not.i12, label %30, label %compat_allocator_table.exit14

30:                                               ; preds = %rb_obj_write.exit11
  %31 = tail call ptr @rb_st_init_numtable() #22
  store ptr %31, ptr @compat_allocator_tbl, align 8, !tbaa !11
  %32 = tail call i64 @rb_data_typed_object_wrap(i64 noundef 0, ptr noundef %31, ptr noundef nonnull @marshal_compat_type) #22
  store i64 %32, ptr @compat_allocator_tbl_wrapper, align 8, !tbaa !7
  tail call void @rb_vm_register_global_object(i64 noundef %32) #22
  %33 = load ptr, ptr @compat_allocator_tbl, align 8, !tbaa !11
  br label %compat_allocator_table.exit14

compat_allocator_table.exit14:                    ; preds = %rb_obj_write.exit11, %30
  %.0.i13 = phi ptr [ %33, %30 ], [ %29, %rb_obj_write.exit11 ]
  %34 = ptrtoint ptr %5 to i64
  %35 = ptrtoint ptr %13 to i64
  %36 = tail call i32 @rb_st_insert(ptr noundef %.0.i13, i64 noundef %34, i64 noundef %35) #22
  ret void
}